target datalayout = "e-m:e-p270:32:32-p271:32:32-p272:64:64-i64:64-i128:128-f80:128-n8:16:32:64-S128"
target triple = "x86_64-unknown-linux-gnu"

%struct.NamedGPIOList = type { ptr, ptr, i32, i32, %struct.anon }
%struct.anon = type { ptr, ptr }
%struct.DeviceState = type { %struct.Object, ptr, ptr, i8, i8, i64, ptr, i32, i8, ptr, %struct.NamedGPIOListHead, %struct.NamedClockListHead, %struct.BusStateHead, i32, i32, i32, %struct.ResettableState, ptr, %struct.MemReentrancyGuard }
%struct.Object = type { ptr, ptr, ptr, i32, ptr }
%struct.NamedGPIOListHead = type { ptr }
%struct.NamedClockListHead = type { ptr }
%struct.BusStateHead = type { ptr }
%struct.ResettableState = type { i32, i8, i8 }
%struct.MemReentrancyGuard = type { i8 }

@.str.1 = private unnamed_addr constant [23 x i8] c"../qemu/hw/core/gpio.c\00", align 1
@.str.7 = private unnamed_addr constant [32 x i8] c"n >= 0 && n < gpio_list->num_in\00", align 1
@__PRETTY_FUNCTION__.qdev_get_gpio_in_named = private unnamed_addr constant [66 x i8] c"qemu_irq qdev_get_gpio_in_named(DeviceState *, const char *, int)\00", align 1

; Function Attrs: nounwind sspstrong uwtable
define internal ptr @qdev_get_named_gpio_list(ptr noundef %dev, ptr noundef %name) #0 {
entry:
  %retval = alloca ptr, align 8
  %dev.addr = alloca ptr, align 8
  %name.addr = alloca ptr, align 8
  %ngl = alloca ptr, align 8
  store ptr %dev, ptr %dev.addr, align 8
  store ptr %name, ptr %name.addr, align 8
  %0 = load ptr, ptr %dev.addr, align 8
  %gpios = getelementptr inbounds %struct.DeviceState, ptr %0, i32 0, i32 10
  %lh_first = getelementptr inbounds %struct.NamedGPIOListHead, ptr %gpios, i32 0, i32 0
  %1 = load ptr, ptr %lh_first, align 8
  store ptr %1, ptr %ngl, align 8
  br label %for.cond

for.cond:                                         ; preds = %for.inc, %entry
  %2 = load ptr, ptr %ngl, align 8
  %tobool = icmp ne ptr %2, null
  br i1 %tobool, label %for.body, label %for.end

for.body:                                         ; preds = %for.cond
  %3 = load ptr, ptr %name.addr, align 8
  %4 = load ptr, ptr %ngl, align 8
  %name1 = getelementptr inbounds %struct.NamedGPIOList, ptr %4, i32 0, i32 0
  %5 = load ptr, ptr %name1, align 8
  %call = call i32 @g_strcmp0(ptr noundef %3, ptr noundef %5)
  %cmp = icmp eq i32 %call, 0
  br i1 %cmp, label %if.then, label %if.end

if.then:                                          ; preds = %for.body
  %6 = load ptr, ptr %ngl, align 8
  store ptr %6, ptr %retval, align 8
  br label %return

if.end:                                           ; preds = %for.body
  br label %for.inc

for.inc:                                          ; preds = %if.end
  %7 = load ptr, ptr %ngl, align 8
  %node = getelementptr inbounds %struct.NamedGPIOList, ptr %7, i32 0, i32 4
  %le_next = getelementptr inbounds %struct.anon, ptr %node, i32 0, i32 0
  %8 = load ptr, ptr %le_next, align 8
  store ptr %8, ptr %ngl, align 8
  br label %for.cond, !llvm.loop !7

for.end:                                          ; preds = %for.cond
  %call2 = call noalias ptr @g_malloc0(i64 noundef 40) #6
  store ptr %call2, ptr %ngl, align 8
  %9 = load ptr, ptr %name.addr, align 8
  %call3 = call noalias ptr @g_strdup(ptr noundef %9)
  %10 = load ptr, ptr %ngl, align 8
  %name4 = getelementptr inbounds %struct.NamedGPIOList, ptr %10, i32 0, i32 0
  store ptr %call3, ptr %name4, align 8
  br label %do.body

do.body:                                          ; preds = %for.end
  %11 = load ptr, ptr %dev.addr, align 8
  %gpios5 = getelementptr inbounds %struct.DeviceState, ptr %11, i32 0, i32 10
  %lh_first6 = getelementptr inbounds %struct.NamedGPIOListHead, ptr %gpios5, i32 0, i32 0
  %12 = load ptr, ptr %lh_first6, align 8
  %13 = load ptr, ptr %ngl, align 8
  %node7 = getelementptr inbounds %struct.NamedGPIOList, ptr %13, i32 0, i32 4
  %le_next8 = getelementptr inbounds %struct.anon, ptr %node7, i32 0, i32 0
  store ptr %12, ptr %le_next8, align 8
  %cmp9 = icmp ne ptr %12, null
  br i1 %cmp9, label %if.then10, label %if.end16

if.then10:                                        ; preds = %do.body
  %14 = load ptr, ptr %ngl, align 8
  %node11 = getelementptr inbounds %struct.NamedGPIOList, ptr %14, i32 0, i32 4
  %le_next12 = getelementptr inbounds %struct.anon, ptr %node11, i32 0, i32 0
  %15 = load ptr, ptr %dev.addr, align 8
  %gpios13 = getelementptr inbounds %struct.DeviceState, ptr %15, i32 0, i32 10
  %lh_first14 = getelementptr inbounds %struct.NamedGPIOListHead, ptr %gpios13, i32 0, i32 0
  %16 = load ptr, ptr %lh_first14, align 8
  %node15 = getelementptr inbounds %struct.NamedGPIOList, ptr %16, i32 0, i32 4
  %le_prev = getelementptr inbounds %struct.anon, ptr %node15, i32 0, i32 1
  store ptr %le_next12, ptr %le_prev, align 8
  br label %if.end16

if.end16:                                         ; preds = %if.then10, %do.body
  %17 = load ptr, ptr %ngl, align 8
  %18 = load ptr, ptr %dev.addr, align 8
  %gpios17 = getelementptr inbounds %struct.DeviceState, ptr %18, i32 0, i32 10
  %lh_first18 = getelementptr inbounds %struct.NamedGPIOListHead, ptr %gpios17, i32 0, i32 0
  store ptr %17, ptr %lh_first18, align 8
  %19 = load ptr, ptr %dev.addr, align 8
  %gpios19 = getelementptr inbounds %struct.DeviceState, ptr %19, i32 0, i32 10
  %lh_first20 = getelementptr inbounds %struct.NamedGPIOListHead, ptr %gpios19, i32 0, i32 0
  %20 = load ptr, ptr %ngl, align 8
  %node21 = getelementptr inbounds %struct.NamedGPIOList, ptr %20, i32 0, i32 4
  %le_prev22 = getelementptr inbounds %struct.anon, ptr %node21, i32 0, i32 1
  store ptr %lh_first20, ptr %le_prev22, align 8
  br label %do.end

do.end:                                           ; preds = %if.end16
  %21 = load ptr, ptr %ngl, align 8
  store ptr %21, ptr %retval, align 8
  br label %return

return:                                           ; preds = %do.end, %if.then
  %22 = load ptr, ptr %retval, align 8
  ret ptr %22
}

; Function Attrs: nounwind sspstrong uwtable
define dso_local ptr @qdev_get_gpio_in_named(ptr noundef %dev, ptr noundef %name, i32 noundef %n) #0 {
entry:
  %dev.addr = alloca ptr, align 8
  %name.addr = alloca ptr, align 8
  %n.addr = alloca i32, align 4
  %gpio_list = alloca ptr, align 8
  store ptr %dev, ptr %dev.addr, align 8
  store ptr %name, ptr %name.addr, align 8
  store i32 %n, ptr %n.addr, align 4
  %0 = load ptr, ptr %dev.addr, align 8
  %1 = load ptr, ptr %name.addr, align 8
  %call = call ptr @qdev_get_named_gpio_list(ptr noundef %0, ptr noundef %1)
  store ptr %call, ptr %gpio_list, align 8
  %2 = load i32, ptr %n.addr, align 4
  %cmp = icmp sge i32 %2, 0
  br i1 %cmp, label %land.lhs.true, label %if.else

land.lhs.true:                                    ; preds = %entry
  %3 = load i32, ptr %n.addr, align 4
  %4 = load ptr, ptr %gpio_list, align 8
  %num_in = getelementptr inbounds %struct.NamedGPIOList, ptr %4, i32 0, i32 2
  %5 = load i32, ptr %num_in, align 8
  %cmp1 = icmp slt i32 %3, %5
  br i1 %cmp1, label %if.then, label %if.else

if.then:                                          ; preds = %land.lhs.true
  br label %if.end

if.else:                                          ; preds = %land.lhs.true, %entry
  call void @__assert_fail(ptr noundef @.str.7, ptr noundef @.str.1, i32 noundef 108, ptr noundef @__PRETTY_FUNCTION__.qdev_get_gpio_in_named) #5
  unreachable

if.end:                                           ; preds = %if.then
  %6 = load ptr, ptr %gpio_list, align 8
  %in = getelementptr inbounds %struct.NamedGPIOList, ptr %6, i32 0, i32 1
  %7 = load ptr, ptr %in, align 8
  %8 = load i32, ptr %n.addr, align 4
  %idxprom = sext i32 %8 to i64
  %arrayidx = getelementptr ptr, ptr %7, i64 %idxprom
  %9 = load ptr, ptr %arrayidx, align 8
  ret ptr %9
}