; Function Attrs: nounwind sspstrong uwtable
define dso_local ptr @qdev_get_gpio_in_named(ptr noundef %dev, ptr noundef %name, i32 noundef %n) local_unnamed_addr #0 {
entry:
  %gpios.i = getelementptr inbounds nuw i8, ptr %dev, i64 96
  %ngl.016.i = load ptr, ptr %gpios.i, align 8
  %tobool.not17.i = icmp eq ptr %ngl.016.i, null
  br i1 %tobool.not17.i, label %for.end.i, label %for.body.i

for.body.i:                                       ; preds = %entry, %for.inc.i
  %ngl.018.i = phi ptr [ %ngl.0.i, %for.inc.i ], [ %ngl.016.i, %entry ]
  %0 = load ptr, ptr %ngl.018.i, align 8
  %call.i = tail call i32 @g_strcmp0(ptr noundef %name, ptr noundef %0) #5
  %cmp.i = icmp eq i32 %call.i, 0
  br i1 %cmp.i, label %qdev_get_named_gpio_list.exit, label %for.inc.i

for.inc.i:                                        ; preds = %for.body.i
  %node.i = getelementptr inbounds nuw i8, ptr %ngl.018.i, i64 24
  %ngl.0.i = load ptr, ptr %node.i, align 8
  %tobool.not.i = icmp eq ptr %ngl.0.i, null
  br i1 %tobool.not.i, label %for.end.i, label %for.body.i, !llvm.loop !5

for.end.i:                                        ; preds = %for.inc.i, %entry
  %call2.i = tail call noalias dereferenceable_or_null(40) ptr @g_malloc0(i64 noundef 40) #6
  %call3.i = tail call noalias ptr @g_strdup(ptr noundef %name) #5
  store ptr %call3.i, ptr %call2.i, align 8
  %1 = load ptr, ptr %gpios.i, align 8
  %node7.i = getelementptr inbounds nuw i8, ptr %call2.i, i64 24
  store ptr %1, ptr %node7.i, align 8
  %cmp9.not.i = icmp eq ptr %1, null
  br i1 %cmp9.not.i, label %if.end16.i, label %if.then10.i

if.then10.i:                                      ; preds = %for.end.i
  %le_prev.i = getelementptr inbounds nuw i8, ptr %1, i64 32
  store ptr %node7.i, ptr %le_prev.i, align 8
  br label %if.end16.i

if.end16.i:                                       ; preds = %if.then10.i, %for.end.i
  store ptr %call2.i, ptr %gpios.i, align 8
  %le_prev22.i = getelementptr inbounds nuw i8, ptr %call2.i, i64 32
  store ptr %gpios.i, ptr %le_prev22.i, align 8
  br label %qdev_get_named_gpio_list.exit

qdev_get_named_gpio_list.exit:                    ; preds = %for.body.i, %if.end16.i
  %retval.0.i = phi ptr [ %call2.i, %if.end16.i ], [ %ngl.018.i, %for.body.i ]
  %cmp = icmp sgt i32 %n, -1
  br i1 %cmp, label %land.lhs.true, label %if.else

land.lhs.true:                                    ; preds = %qdev_get_named_gpio_list.exit
  %num_in = getelementptr inbounds nuw i8, ptr %retval.0.i, i64 16
  %2 = load i32, ptr %num_in, align 8
  %cmp1 = icmp slt i32 %n, %2
  br i1 %cmp1, label %if.end, label %if.else

if.else:                                          ; preds = %land.lhs.true, %qdev_get_named_gpio_list.exit
  tail call void @__assert_fail(ptr noundef nonnull @.str.7, ptr noundef nonnull @.str.1, i32 noundef 108, ptr noundef nonnull @__PRETTY_FUNCTION__.qdev_get_gpio_in_named) #7
  unreachable

if.end:                                           ; preds = %land.lhs.true
  %in = getelementptr inbounds nuw i8, ptr %retval.0.i, i64 8
  %3 = load ptr, ptr %in, align 8
  %idxprom = zext nneg i32 %n to i64
  %arrayidx = getelementptr ptr, ptr %3, i64 %idxprom
  %4 = load ptr, ptr %arrayidx, align 8
  ret ptr %4
}